; ModuleID = 'bench/linux/original/dswscope.ll'
source_filename = "bench/linux/original/dswscope.ll"
target datalayout = "e-m:e-p270:32:32-p271:32:32-p272:64:64-i64:64-i128:128-f80:128-n8:16:32:64-S128"
target triple = "x86_64-unknown-linux-gnu"

@_acpi_module_name = internal constant [9 x i8] c"dswscope\00", align 1
@.str = private unnamed_addr constant [21 x i8] c"Null scope parameter\00", align 1
@.str.1 = private unnamed_addr constant [26 x i8] c"Invalid object type: 0x%X\00", align 1

; Function Attrs: fn_ret_thunk_extern nounwind null_pointer_is_valid
define dso_local void @acpi_ds_scope_stack_clear(ptr nocapture noundef %0) local_unnamed_addr #0 align 16 {
  %2 = getelementptr inbounds i8, ptr %0, i64 1080
  %3 = load ptr, ptr %2, align 8
  %4 = icmp eq ptr %3, null
  br i1 %4, label %.loopexit, label %.preheader

.preheader:                                       ; preds = %1, %.preheader
  %5 = phi ptr [ %7, %.preheader ], [ %3, %1 ]
  %6 = load ptr, ptr %5, align 8
  store ptr %6, ptr %2, align 8
  tail call void @acpi_ut_delete_generic_state(ptr noundef nonnull %5) #2
  %7 = load ptr, ptr %2, align 8
  %8 = icmp eq ptr %7, null
  br i1 %8, label %.loopexit, label %.preheader, !llvm.loop !5

.loopexit:                                        ; preds = %.preheader, %1
  ret void
}

; Function Attrs: null_pointer_is_valid
declare dso_local void @acpi_ut_delete_generic_state(ptr noundef) local_unnamed_addr #1

; Function Attrs: fn_ret_thunk_extern nounwind null_pointer_is_valid
define dso_local noundef i32 @acpi_ds_scope_stack_push(ptr noundef %0, i32 noundef %1, ptr noundef %2) local_unnamed_addr #0 align 16 {
  %4 = icmp eq ptr %0, null
  br i1 %4, label %5, label %6

5:                                                ; preds = %3
  tail call void (ptr, i32, ptr, ...) @acpi_error(ptr noundef nonnull @_acpi_module_name, i32 noundef 80, ptr noundef nonnull @.str) #2
  br label %22

6:                                                ; preds = %3
  %7 = tail call zeroext i8 @acpi_ut_valid_object_type(i32 noundef %1) #2
  %8 = icmp eq i8 %7, 0
  br i1 %8, label %9, label %10

9:                                                ; preds = %6
  tail call void (ptr, i32, ptr, ...) @acpi_warning(ptr noundef nonnull @_acpi_module_name, i32 noundef 87, ptr noundef nonnull @.str.1, i32 noundef %1) #2
  br label %10

10:                                               ; preds = %9, %6
  %11 = tail call ptr @acpi_ut_create_generic_state() #2
  %12 = icmp eq ptr %11, null
  br i1 %12, label %22, label %13

13:                                               ; preds = %10
  %14 = getelementptr inbounds i8, ptr %11, i64 8
  store i8 8, ptr %14, align 8
  %15 = getelementptr inbounds i8, ptr %11, i64 16
  store ptr %0, ptr %15, align 8
  %16 = trunc i32 %1 to i16
  %17 = getelementptr inbounds i8, ptr %11, i64 10
  store i16 %16, ptr %17, align 2
  %18 = getelementptr inbounds i8, ptr %2, i64 21
  %19 = load i8, ptr %18, align 1
  %20 = add i8 %19, 1
  store i8 %20, ptr %18, align 1
  %21 = getelementptr inbounds i8, ptr %2, i64 1080
  tail call void @acpi_ut_push_generic_state(ptr noundef %21, ptr noundef nonnull %11) #2
  br label %22

22:                                               ; preds = %13, %10, %5
  %23 = phi i32 [ 0, %13 ], [ 4097, %5 ], [ 4, %10 ]
  ret i32 %23
}

; Function Attrs: null_pointer_is_valid
declare dso_local void @acpi_error(ptr noundef, i32 noundef, ptr noundef, ...) local_unnamed_addr #1

; Function Attrs: null_pointer_is_valid
declare dso_local zeroext i8 @acpi_ut_valid_object_type(i32 noundef) local_unnamed_addr #1

; Function Attrs: null_pointer_is_valid
declare dso_local void @acpi_warning(ptr noundef, i32 noundef, ptr noundef, ...) local_unnamed_addr #1

; Function Attrs: null_pointer_is_valid
declare dso_local ptr @acpi_ut_create_generic_state() local_unnamed_addr #1

; Function Attrs: null_pointer_is_valid
declare dso_local void @acpi_ut_push_generic_state(ptr noundef, ptr noundef) local_unnamed_addr #1

; Function Attrs: fn_ret_thunk_extern nounwind null_pointer_is_valid
define dso_local noundef i32 @acpi_ds_scope_stack_pop(ptr noundef %0) local_unnamed_addr #0 align 16 {
  %2 = getelementptr inbounds i8, ptr %0, i64 1080
  %3 = tail call ptr @acpi_ut_pop_generic_state(ptr noundef %2) #2
  %4 = icmp eq ptr %3, null
  br i1 %4, label %9, label %5

5:                                                ; preds = %1
  %6 = getelementptr inbounds i8, ptr %0, i64 21
  %7 = load i8, ptr %6, align 1
  %8 = add i8 %7, -1
  store i8 %8, ptr %6, align 1
  tail call void @acpi_ut_delete_generic_state(ptr noundef nonnull %3) #2
  br label %9

9:                                                ; preds = %5, %1
  %10 = phi i32 [ 0, %5 ], [ 13, %1 ]
  ret i32 %10
}

; Function Attrs: null_pointer_is_valid
declare dso_local ptr @acpi_ut_pop_generic_state(ptr noundef) local_unnamed_addr #1


!llvm.module.flags = !{!0, !1, !2, !3, !4}

!0 = !{i32 1, !"wchar_size", i32 2}
!1 = !{i32 8, !"cf-protection-branch", i32 1}
!2 = !{i32 4, !"function_return_thunk_extern", i32 1}
!3 = !{i32 4, !"indirect_branch_cs_prefix", i32 1}
!4 = !{i32 4, !"SkipRaxSetup", i32 1}
!5 = distinct !{!5, !6, !7}
!6 = !{!"llvm.loop.mustprogress"}
!7 = !{!"llvm.loop.unroll.disable"}
